target datalayout = "e-m:e-p270:32:32-p271:32:32-p272:64:64-i64:64-i128:128-f80:128-n8:16:32:64-S128"
target triple = "x86_64-unknown-linux-gnu"

%struct.ckh_t = type { i64, i64, i32, i32, ptr, ptr, ptr }
%struct.prof_tdata_s = type { ptr, i64, i64, ptr, i8, i8, %struct.anon, i64, %struct.ckh_t, i8, i8, i8, i8, i8, %struct.prof_cnt_s, [128 x ptr] }
%struct.anon = type { ptr, ptr }
%struct.prof_cnt_s = type { i64, i64, i64, i64, i64, i64, i64, i64 }

; Function Attrs: nounwind uwtable
define internal ptr @tdata_tree_iter_recurse(ptr noundef %rbtree, ptr noundef %node, ptr noundef %cb, ptr noundef %arg) #0 {
entry:
  %retval = alloca ptr, align 8
  %rbtree.addr = alloca ptr, align 8
  %node.addr = alloca ptr, align 8
  %cb.addr = alloca ptr, align 8
  %arg.addr = alloca ptr, align 8
  %ret = alloca ptr, align 8
  store ptr %rbtree, ptr %rbtree.addr, align 8
  store ptr %node, ptr %node.addr, align 8
  store ptr %cb, ptr %cb.addr, align 8
  store ptr %arg, ptr %arg.addr, align 8
  %0 = load ptr, ptr %node.addr, align 8
  %cmp = icmp eq ptr %0, null
  br i1 %cmp, label %if.then, label %if.else

if.then:                                          ; preds = %entry
  store ptr null, ptr %retval, align 8
  br label %return

if.else:                                          ; preds = %entry
  %1 = load ptr, ptr %rbtree.addr, align 8
  %2 = load ptr, ptr %node.addr, align 8
  %tdata_link = getelementptr inbounds %struct.prof_tdata_s, ptr %2, i32 0, i32 6
  %rbn_left = getelementptr inbounds %struct.anon, ptr %tdata_link, i32 0, i32 0
  %3 = load ptr, ptr %rbn_left, align 8
  %4 = load ptr, ptr %cb.addr, align 8
  %5 = load ptr, ptr %arg.addr, align 8
  %call = call ptr @tdata_tree_iter_recurse(ptr noundef %1, ptr noundef %3, ptr noundef %4, ptr noundef %5)
  store ptr %call, ptr %ret, align 8
  %cmp1 = icmp ne ptr %call, null
  br i1 %cmp1, label %if.then4, label %lor.lhs.false

lor.lhs.false:                                    ; preds = %if.else
  %6 = load ptr, ptr %cb.addr, align 8
  %7 = load ptr, ptr %rbtree.addr, align 8
  %8 = load ptr, ptr %node.addr, align 8
  %9 = load ptr, ptr %arg.addr, align 8
  %call2 = call ptr %6(ptr noundef %7, ptr noundef %8, ptr noundef %9)
  store ptr %call2, ptr %ret, align 8
  %cmp3 = icmp ne ptr %call2, null
  br i1 %cmp3, label %if.then4, label %if.end

if.then4:                                         ; preds = %lor.lhs.false, %if.else
  %10 = load ptr, ptr %ret, align 8
  store ptr %10, ptr %retval, align 8
  br label %return

if.end:                                           ; preds = %lor.lhs.false
  %11 = load ptr, ptr %rbtree.addr, align 8
  %12 = load ptr, ptr %node.addr, align 8
  %tdata_link5 = getelementptr inbounds %struct.prof_tdata_s, ptr %12, i32 0, i32 6
  %rbn_right_red = getelementptr inbounds %struct.anon, ptr %tdata_link5, i32 0, i32 1
  %13 = load ptr, ptr %rbn_right_red, align 8
  %14 = ptrtoint ptr %13 to i64
  %and = and i64 %14, -2
  %15 = inttoptr i64 %and to ptr
  %16 = load ptr, ptr %cb.addr, align 8
  %17 = load ptr, ptr %arg.addr, align 8
  %call6 = call ptr @tdata_tree_iter_recurse(ptr noundef %11, ptr noundef %15, ptr noundef %16, ptr noundef %17)
  store ptr %call6, ptr %retval, align 8
  br label %return

return:                                           ; preds = %if.end, %if.then4, %if.then
  %18 = load ptr, ptr %retval, align 8
  ret ptr %18
}