; Function Attrs: nounwind uwtable
define internal fastcc ptr @tdata_tree_iter_recurse(ptr noundef %node, ptr nocapture noundef readonly %cb, ptr noundef %arg) unnamed_addr #0 {
entry:
  %cmp1 = icmp eq ptr %node, null
  br i1 %cmp1, label %return, label %if.else

if.else:                                          ; preds = %entry, %if.end
  %node.tr2 = phi ptr [ %3, %if.end ], [ %node, %entry ]
  %tdata_link = getelementptr inbounds i8, ptr %node.tr2, i64 40
  %0 = load ptr, ptr %tdata_link, align 8
  %call = tail call fastcc ptr @tdata_tree_iter_recurse(ptr noundef %0, ptr noundef %cb, ptr noundef %arg)
  %cmp1.not = icmp eq ptr %call, null
  br i1 %cmp1.not, label %lor.lhs.false, label %return

lor.lhs.false:                                    ; preds = %if.else
  %call2 = tail call ptr %cb(ptr noundef nonnull @tdatas, ptr noundef nonnull %node.tr2, ptr noundef %arg) #11, !callees !23
  %cmp3.not = icmp eq ptr %call2, null
  br i1 %cmp3.not, label %if.end, label %return

if.end:                                           ; preds = %lor.lhs.false
  %rbn_right_red = getelementptr inbounds i8, ptr %node.tr2, i64 48
  %1 = load ptr, ptr %rbn_right_red, align 8
  %2 = ptrtoint ptr %1 to i64
  %and = and i64 %2, -2
  %3 = inttoptr i64 %and to ptr
  %cmp = icmp eq i64 %and, 0
  br i1 %cmp, label %return, label %if.else

return:                                           ; preds = %if.end, %lor.lhs.false, %if.else, %entry
  %retval.0 = phi ptr [ null, %entry ], [ %call, %if.else ], [ %call2, %lor.lhs.false ], [ null, %if.end ]
  ret ptr %retval.0
}